; Function Attrs: nounwind uwtable
define void @dt_dev_pixelpipe_cache_invalidate_later(ptr noundef %0, i32 noundef %1) local_unnamed_addr #0 {
  %3 = load i32, ptr %0, align 8, !tbaa !6
  %4 = icmp sgt i32 %3, 2
  br i1 %4, label %.lr.ph, label %._crit_edge.thread

.lr.ph:                                           ; preds = %2
  %5 = getelementptr inbounds nuw i8, ptr %0, i64 64
  %6 = load ptr, ptr %5, align 8, !tbaa !24
  %7 = getelementptr inbounds nuw i8, ptr %0, i64 48
  br label %8

._crit_edge:                                      ; preds = %18
  %.not = icmp eq i32 %.1, 0
  br i1 %.not, label %._crit_edge.thread, label %22

8:                                                ; preds = %.lr.ph, %18
  %9 = phi i32 [ %3, %.lr.ph ], [ %19, %18 ]
  %indvars.iv = phi i64 [ 2, %.lr.ph ], [ %indvars.iv.next, %18 ]
  %.01622 = phi i32 [ 0, %.lr.ph ], [ %.1, %18 ]
  %10 = getelementptr inbounds nuw i32, ptr %6, i64 %indvars.iv
  %11 = load i32, ptr %10, align 4, !tbaa !26
  %.not19 = icmp slt i32 %11, %1
  br i1 %.not19, label %18, label %12

12:                                               ; preds = %8
  %13 = load ptr, ptr %7, align 8, !tbaa !22
  %14 = getelementptr inbounds nuw i64, ptr %13, i64 %indvars.iv
  %15 = load i64, ptr %14, align 8, !tbaa !25
  %.not20 = icmp eq i64 %15, 0
  br i1 %.not20, label %18, label %16

16:                                               ; preds = %12
  store i64 0, ptr %14, align 8, !tbaa !25
  store i32 0, ptr %10, align 4, !tbaa !26
  %17 = add nsw i32 %.01622, 1
  %.pre = load i32, ptr %0, align 8, !tbaa !6
  br label %18

18:                                               ; preds = %8, %12, %16
  %19 = phi i32 [ %.pre, %16 ], [ %9, %12 ], [ %9, %8 ]
  %.1 = phi i32 [ %17, %16 ], [ %.01622, %12 ], [ %.01622, %8 ]
  %indvars.iv.next = add nuw nsw i64 %indvars.iv, 1
  %20 = sext i32 %19 to i64
  %21 = icmp slt i64 %indvars.iv.next, %20
  br i1 %21, label %8, label %._crit_edge

22:                                               ; preds = %._crit_edge
  %23 = load i32, ptr getelementptr inbounds nuw (i8, ptr @darktable, i64 8), align 8, !tbaa !48
  %24 = and i32 %23, 33554432
  %.not17 = icmp eq i32 %24, 0
  br i1 %.not17, label %._crit_edge.thread, label %25

25:                                               ; preds = %22
  %.not18 = icmp eq i32 %1, 0
  %26 = select i1 %.not18, ptr @.str.9, ptr @.str.8
  tail call void (ptr, ptr, ptr, i32, ptr, ptr, ptr, ...) @dt_print_pipe_ext(ptr noundef nonnull %26, ptr noundef nonnull %0, ptr noundef null, i32 noundef -2, ptr noundef null, ptr noundef null, ptr noundef nonnull @.str.10, i32 noundef %.1, i32 noundef %1)
  br label %._crit_edge.thread

._crit_edge.thread:                               ; preds = %2, %22, %25, %._crit_edge
  ret void
}